; ModuleID = '58/1146.c'
source_filename = "58/1146.c"
target datalayout = "e-m:e-p270:32:32-p271:32:32-p272:64:64-i64:64-f80:128-n8:16:32:64-S128"
target triple = "x86_64-pc-linux-gnu"

@.str = private unnamed_addr constant [4 x i8] c"%d\0A\00", align 1

; Function Attrs: noinline nounwind uwtable
define dso_local i32 @main(i32 %0, i8** %1) #0 {
  %3 = alloca i32, align 4
  %4 = alloca i32, align 4
  %5 = alloca i8**, align 8
  %6 = alloca i32, align 4
  %7 = alloca i32, align 4
  %8 = alloca i32, align 4
  %9 = alloca [81 x i8], align 16
  store i32 0, i32* %3, align 4
  store i32 %0, i32* %4, align 4
  store i8** %1, i8*** %5, align 8
  %10 = getelementptr inbounds [81 x i8], [81 x i8]* %9, i64 0, i64 0
  %11 = call i32 (i8*, ...) bitcast (i32 (...)* @gets to i32 (i8*, ...)*)(i8* %10)
  %12 = getelementptr inbounds [81 x i8], [81 x i8]* %9, i64 0, i64 0
  %13 = call i32 @atoi(i8* %12) #3
  store i32 %13, i32* %6, align 4
  store i32 0, i32* %7, align 4
  br label %14

14:                                               ; preds = %25, %2
  %15 = load i32, i32* %7, align 4
  %16 = load i32, i32* %6, align 4
  %17 = icmp slt i32 %15, %16
  br i1 %17, label %18, label %28

18:                                               ; preds = %14
  %19 = getelementptr inbounds [81 x i8], [81 x i8]* %9, i64 0, i64 0
  %20 = call i32 (i8*, ...) bitcast (i32 (...)* @gets to i32 (i8*, ...)*)(i8* %19)
  %21 = getelementptr inbounds [81 x i8], [81 x i8]* %9, i64 0, i64 0
  %22 = call i32 @legal(i8* %21)
  store i32 %22, i32* %8, align 4
  %23 = load i32, i32* %8, align 4
  %24 = call i32 (i8*, ...) @printf(i8* getelementptr inbounds ([4 x i8], [4 x i8]* @.str, i64 0, i64 0), i32 %23)
  br label %25

25:                                               ; preds = %18
  %26 = load i32, i32* %7, align 4
  %27 = add nsw i32 %26, 1
  store i32 %27, i32* %7, align 4
  br label %14

28:                                               ; preds = %14
  ret i32 0
}

declare dso_local i32 @gets(...) #1

; Function Attrs: nounwind readonly
declare dso_local i32 @atoi(i8*) #2

; Function Attrs: noinline nounwind uwtable
define dso_local i32 @legal(i8* %0) #0 {
  %2 = alloca i32, align 4
  %3 = alloca i8*, align 8
  %4 = alloca i32, align 4
  %5 = alloca i32, align 4
  %6 = alloca i32, align 4
  store i8* %0, i8** %3, align 8
  store i32 1, i32* %6, align 4
  %7 = load i8*, i8** %3, align 8
  %8 = call i64 @strlen(i8* %7) #3
  %9 = trunc i64 %8 to i32
  store i32 %9, i32* %4, align 4
  %10 = load i8*, i8** %3, align 8
  %11 = getelementptr inbounds i8, i8* %10, i64 0
  %12 = load i8, i8* %11, align 1
  %13 = sext i8 %12 to i32
  %14 = icmp eq i32 %13, 95
  br i1 %14, label %39, label %15

15:                                               ; preds = %1
  %16 = load i8*, i8** %3, align 8
  %17 = getelementptr inbounds i8, i8* %16, i64 0
  %18 = load i8, i8* %17, align 1
  %19 = sext i8 %18 to i32
  %20 = icmp sge i32 %19, 65
  br i1 %20, label %21, label %27

21:                                               ; preds = %15
  %22 = load i8*, i8** %3, align 8
  %23 = getelementptr inbounds i8, i8* %22, i64 0
  %24 = load i8, i8* %23, align 1
  %25 = sext i8 %24 to i32
  %26 = icmp sle i32 %25, 90
  br i1 %26, label %39, label %27

27:                                               ; preds = %21, %15
  %28 = load i8*, i8** %3, align 8
  %29 = getelementptr inbounds i8, i8* %28, i64 0
  %30 = load i8, i8* %29, align 1
  %31 = sext i8 %30 to i32
  %32 = icmp sge i32 %31, 97
  br i1 %32, label %33, label %111

33:                                               ; preds = %27
  %34 = load i8*, i8** %3, align 8
  %35 = getelementptr inbounds i8, i8* %34, i64 0
  %36 = load i8, i8* %35, align 1
  %37 = sext i8 %36 to i32
  %38 = icmp sle i32 %37, 122
  br i1 %38, label %39, label %111

39:                                               ; preds = %33, %21, %1
  store i32 1, i32* %5, align 4
  br label %40

40:                                               ; preds = %103, %39
  %41 = load i32, i32* %5, align 4
  %42 = load i32, i32* %4, align 4
  %43 = icmp slt i32 %41, %42
  br i1 %43, label %44, label %106

44:                                               ; preds = %40
  %45 = load i8*, i8** %3, align 8
  %46 = load i32, i32* %5, align 4
  %47 = sext i32 %46 to i64
  %48 = getelementptr inbounds i8, i8* %45, i64 %47
  %49 = load i8, i8* %48, align 1
  %50 = sext i8 %49 to i32
  %51 = icmp sge i32 %50, 65
  br i1 %51, label %52, label %60

52:                                               ; preds = %44
  %53 = load i8*, i8** %3, align 8
  %54 = load i32, i32* %5, align 4
  %55 = sext i32 %54 to i64
  %56 = getelementptr inbounds i8, i8* %53, i64 %55
  %57 = load i8, i8* %56, align 1
  %58 = sext i8 %57 to i32
  %59 = icmp sle i32 %58, 90
  br i1 %59, label %100, label %60

60:                                               ; preds = %52, %44
  %61 = load i8*, i8** %3, align 8
  %62 = load i32, i32* %5, align 4
  %63 = sext i32 %62 to i64
  %64 = getelementptr inbounds i8, i8* %61, i64 %63
  %65 = load i8, i8* %64, align 1
  %66 = sext i8 %65 to i32
  %67 = icmp sge i32 %66, 97
  br i1 %67, label %68, label %76

68:                                               ; preds = %60
  %69 = load i8*, i8** %3, align 8
  %70 = load i32, i32* %5, align 4
  %71 = sext i32 %70 to i64
  %72 = getelementptr inbounds i8, i8* %69, i64 %71
  %73 = load i8, i8* %72, align 1
  %74 = sext i8 %73 to i32
  %75 = icmp sle i32 %74, 122
  br i1 %75, label %100, label %76

76:                                               ; preds = %68, %60
  %77 = load i8*, i8** %3, align 8
  %78 = load i32, i32* %5, align 4
  %79 = sext i32 %78 to i64
  %80 = getelementptr inbounds i8, i8* %77, i64 %79
  %81 = load i8, i8* %80, align 1
  %82 = sext i8 %81 to i32
  %83 = icmp sge i32 %82, 48
  br i1 %83, label %84, label %92

84:                                               ; preds = %76
  %85 = load i8*, i8** %3, align 8
  %86 = load i32, i32* %5, align 4
  %87 = sext i32 %86 to i64
  %88 = getelementptr inbounds i8, i8* %85, i64 %87
  %89 = load i8, i8* %88, align 1
  %90 = sext i8 %89 to i32
  %91 = icmp sle i32 %90, 57
  br i1 %91, label %100, label %92

92:                                               ; preds = %84, %76
  %93 = load i8*, i8** %3, align 8
  %94 = load i32, i32* %5, align 4
  %95 = sext i32 %94 to i64
  %96 = getelementptr inbounds i8, i8* %93, i64 %95
  %97 = load i8, i8* %96, align 1
  %98 = sext i8 %97 to i32
  %99 = icmp eq i32 %98, 95
  br i1 %99, label %100, label %101

100:                                              ; preds = %92, %84, %68, %52
  store i32 1, i32* %6, align 4
  br label %102

101:                                              ; preds = %92
  store i32 0, i32* %6, align 4
  br label %106

102:                                              ; preds = %100
  br label %103

103:                                              ; preds = %102
  %104 = load i32, i32* %5, align 4
  %105 = add nsw i32 %104, 1
  store i32 %105, i32* %5, align 4
  br label %40

106:                                              ; preds = %101, %40
  %107 = load i32, i32* %6, align 4
  %108 = icmp ne i32 %107, 0
  br i1 %108, label %109, label %110

109:                                              ; preds = %106
  store i32 1, i32* %2, align 4
  br label %112

110:                                              ; preds = %106
  store i32 0, i32* %2, align 4
  br label %112

111:                                              ; preds = %33, %27
  store i32 0, i32* %2, align 4
  br label %112

112:                                              ; preds = %111, %110, %109
  %113 = load i32, i32* %2, align 4
  ret i32 %113
}

declare dso_local i32 @printf(i8*, ...) #1

; Function Attrs: nounwind readonly
declare dso_local i64 @strlen(i8*) #2


!llvm.module.flags = !{!0}
!llvm.ident = !{!1}

!0 = !{i32 1, !"wchar_size", i32 4}
!1 = !{!"clang version 10.0.0-4ubuntu1 "}
